(i__main__
LogFile
p0
(dp1
S'_installed_files'
p2
(dp3
S'../../../DetectorDescription/Identifier/x86_64-slc6-gcc49-opt/libIdentifier.so.debug'
p4
S'../../../InstallArea/x86_64-slc6-gcc49-opt/lib/libIdentifier.so.debug'
p5
sS'../../../DetectorDescription/Identifier/x86_64-slc6-gcc49-opt/libIdentifier.so'
p6
S'../../../InstallArea/x86_64-slc6-gcc49-opt/lib/libIdentifier.so'
p7
ssb.