(i__main__
LogFile
p0
(dp1
S'_installed_files'
p2
(dp3
S'../../../DetectorDescription/GeoPrimitives/x86_64-slc6-gcc48-opt/libGeoPrimitivesDict.so.debug'
p4
S'../../../InstallArea/x86_64-slc6-gcc48-opt/lib/libGeoPrimitivesDict.so.debug'
p5
sS'../../../DetectorDescription/GeoPrimitives/x86_64-slc6-gcc48-opt/libGeoPrimitivesDict.so'
p6
S'../../../InstallArea/x86_64-slc6-gcc48-opt/lib/libGeoPrimitivesDict.so'
p7
ssb.